(lp0
cnumpy.core.multiarray
scalar
p1
(cnumpy
dtype
p2
(S'u4'
p3
I0
I1
tp4
Rp5
(I3
S'<'
p6
NNNI-1
I-1
I0
tp7
bS'\x00\x02\x00\x00'
p8
tp9
Rp10
aI10
aI12
aI525
aI17
aI530
aI26
aI30
aI1060
aI549
aI38
aI42
aI564
aI59
aI63
aI1091
aI581
aI1097
aI951
aI591
aI83
aI596
aI599
aI604
aI1120
aI609
aI611
aI100
aI108
aI117
aI118
aI633
aI634
aI126
aI129
aI133
aI140
aI145
aI149
aI158
aI606826655
aI606826659
aI164
aI607344838
aI679
aI599626923
aI173
aI181
aI189
aI607344834
aI197
aI198
aI607344842
aI206
aI207
aI728
aI732
aI222
aI223
aI230
aI744
aI238
aI763
aI258
ag1
(g5
S'\x03\x03\x00\x00'
p11
tp12
Rp13
aI272
aI484682516
aI795
aI812
aI310
ag1
(g5
S'9\x01\x00\x00'
p14
tp15
Rp16
aI841
aI336
aI338
aI851
ag1
(g5
S'b\x01\x00\x00'
p17
tp18
Rp19
aI872
aI898
aI900
aI908
aI397
aI912
aI936
aI10671
aI944
aI946
aI560581559
aI443
aI956
aI957
aI449
aI452
aI968
aI975
aI976
aI984
aI986
aI477
aI997
aI491
ag1
(g5
S'\xf1\x03\x00\x00'
p20
tp21
Rp22
aI1108
a.